target datalayout = "e-m:e-p270:32:32-p271:32:32-p272:64:64-i64:64-i128:128-f80:128-n8:16:32:64-S128"
target triple = "x86_64-unknown-linux-gnu"

@_ZTIN19OpenColorIO_v2_4dev14FormatMetadataE = linkonce_odr constant { ptr, ptr } { ptr getelementptr inbounds (ptr, ptr @_ZTVN10__cxxabiv117__class_type_infoE, i64 2), ptr @_ZTSN19OpenColorIO_v2_4dev14FormatMetadataE }, comdat, align 8
@_ZTIN19OpenColorIO_v2_4dev18FormatMetadataImplE = hidden constant { ptr, ptr, ptr } { ptr getelementptr inbounds (ptr, ptr @_ZTVN10__cxxabiv120__si_class_type_infoE, i64 2), ptr @_ZTSN19OpenColorIO_v2_4dev18FormatMetadataImplE, ptr @_ZTIN19OpenColorIO_v2_4dev14FormatMetadataE }, align 8

; Function Attrs: mustprogress uwtable
define hidden void @_ZN19OpenColorIO_v2_4dev18FormatMetadataImplC2ERKNS_14FormatMetadataE(ptr noundef nonnull align 8 dereferenceable(120) %this, ptr noundef nonnull align 8 dereferenceable(8) %other) unnamed_addr #0 align 2 {
entry:
  %this.addr = alloca ptr, align 8
  %other.addr = alloca ptr, align 8
  store ptr %this, ptr %this.addr, align 8
  store ptr %other, ptr %other.addr, align 8
  %this1 = load ptr, ptr %this.addr, align 8
  %0 = load ptr, ptr %other.addr, align 8
  %1 = call ptr @__dynamic_cast(ptr %0, ptr @_ZTIN19OpenColorIO_v2_4dev14FormatMetadataE, ptr @_ZTIN19OpenColorIO_v2_4dev18FormatMetadataImplE, i64 0) #9
  %2 = icmp eq ptr %1, null
  br i1 %2, label %dynamic_cast.bad_cast, label %dynamic_cast.end

dynamic_cast.bad_cast:                            ; preds = %entry
  call void @__cxa_bad_cast() #14
  unreachable

dynamic_cast.end:                                 ; preds = %entry
  call void @_ZN19OpenColorIO_v2_4dev18FormatMetadataImplC2ERKS0_(ptr noundef nonnull align 8 dereferenceable(120) %this1, ptr noundef nonnull align 8 dereferenceable(120) %1)
  ret void
}