; Function Attrs: mustprogress uwtable
define hidden void @_ZN19OpenColorIO_v2_4dev18FormatMetadataImplC2ERKNS_14FormatMetadataE(ptr noundef nonnull align 8 dereferenceable(120) %this, ptr noundef nonnull align 8 dereferenceable(8) %other) unnamed_addr #0 align 2 {
entry:
  %0 = tail call ptr @__dynamic_cast(ptr nonnull %other, ptr nonnull @_ZTIN19OpenColorIO_v2_4dev14FormatMetadataE, ptr nonnull @_ZTIN19OpenColorIO_v2_4dev18FormatMetadataImplE, i64 0) #17
  %1 = icmp eq ptr %0, null
  br i1 %1, label %dynamic_cast.bad_cast, label %dynamic_cast.end

dynamic_cast.bad_cast:                            ; preds = %entry
  tail call void @__cxa_bad_cast() #18
  unreachable

dynamic_cast.end:                                 ; preds = %entry
  tail call void @_ZN19OpenColorIO_v2_4dev18FormatMetadataImplC2ERKS0_(ptr noundef nonnull align 8 dereferenceable(120) %this, ptr noundef nonnull align 8 dereferenceable(120) %0)
  ret void
}